target datalayout = "e-m:e-p270:32:32-p271:32:32-p272:64:64-i64:64-i128:128-f80:128-n8:16:32:64-S128"
target triple = "x86_64-pc-linux-gnu"

@.str = private unnamed_addr constant [33 x i8] c"../openssl/crypto/sm2/sm2_sign.c\00", align 1
@__func__.ossl_sm2_internal_sign = private unnamed_addr constant [23 x i8] c"ossl_sm2_internal_sign\00", align 1

; Function Attrs: nounwind uwtable
define i32 @ossl_sm2_internal_sign(ptr noundef %0, i32 noundef %1, ptr noundef %2, ptr noundef %3, ptr noundef %4) #0 {
  %6 = alloca ptr, align 8
  %7 = alloca i32, align 4
  %8 = alloca ptr, align 8
  %9 = alloca ptr, align 8
  %10 = alloca ptr, align 8
  %11 = alloca ptr, align 8
  %12 = alloca ptr, align 8
  %13 = alloca i32, align 4
  %14 = alloca i32, align 4
  store ptr %0, ptr %6, align 8, !tbaa !3
  store i32 %1, ptr %7, align 4, !tbaa !14
  store ptr %2, ptr %8, align 8, !tbaa !3
  store ptr %3, ptr %9, align 8, !tbaa !33
  store ptr %4, ptr %10, align 8, !tbaa !12
  call void @llvm.lifetime.start.p0(i64 8, ptr %11) #4
  store ptr null, ptr %11, align 8, !tbaa !24
  call void @llvm.lifetime.start.p0(i64 8, ptr %12) #4
  store ptr null, ptr %12, align 8, !tbaa !29
  call void @llvm.lifetime.start.p0(i64 4, ptr %13) #4
  call void @llvm.lifetime.start.p0(i64 4, ptr %14) #4
  store i32 -1, ptr %14, align 4, !tbaa !14
  %15 = load ptr, ptr %8, align 8, !tbaa !3
  %16 = icmp eq ptr %15, null
  br i1 %16, label %17, label %18

17:                                               ; preds = %5
  call void @ERR_new()
  call void @ERR_set_debug(ptr noundef @.str, i32 noundef 465, ptr noundef @__func__.ossl_sm2_internal_sign)
  call void (i32, i32, ptr, ...) @ERR_set_error(i32 noundef 53, i32 noundef 786690, ptr noundef null)
  br label %41

18:                                               ; preds = %5
  %19 = load ptr, ptr %6, align 8, !tbaa !3
  %20 = load i32, ptr %7, align 4, !tbaa !14
  %21 = call ptr @BN_bin2bn(ptr noundef %19, i32 noundef %20, ptr noundef null)
  store ptr %21, ptr %11, align 8, !tbaa !24
  %22 = load ptr, ptr %11, align 8, !tbaa !24
  %23 = icmp eq ptr %22, null
  br i1 %23, label %24, label %25

24:                                               ; preds = %18
  call void @ERR_new()
  call void @ERR_set_debug(ptr noundef @.str, i32 noundef 471, ptr noundef @__func__.ossl_sm2_internal_sign)
  call void (i32, i32, ptr, ...) @ERR_set_error(i32 noundef 53, i32 noundef 524291, ptr noundef null)
  br label %41

25:                                               ; preds = %18
  %26 = load ptr, ptr %10, align 8, !tbaa !12
  %27 = load ptr, ptr %11, align 8, !tbaa !24
  %28 = call ptr @sm2_sig_gen(ptr noundef %26, ptr noundef %27)
  store ptr %28, ptr %12, align 8, !tbaa !29
  %29 = load ptr, ptr %12, align 8, !tbaa !29
  %30 = icmp eq ptr %29, null
  br i1 %30, label %31, label %32

31:                                               ; preds = %25
  call void @ERR_new()
  call void @ERR_set_debug(ptr noundef @.str, i32 noundef 477, ptr noundef @__func__.ossl_sm2_internal_sign)
  call void (i32, i32, ptr, ...) @ERR_set_error(i32 noundef 53, i32 noundef 786691, ptr noundef null)
  br label %41

32:                                               ; preds = %25
  %33 = load ptr, ptr %12, align 8, !tbaa !29
  %34 = call i32 @i2d_ECDSA_SIG(ptr noundef %33, ptr noundef %8)
  store i32 %34, ptr %13, align 4, !tbaa !14
  %35 = load i32, ptr %13, align 4, !tbaa !14
  %36 = icmp slt i32 %35, 0
  br i1 %36, label %37, label %38

37:                                               ; preds = %32
  call void @ERR_new()
  call void @ERR_set_debug(ptr noundef @.str, i32 noundef 483, ptr noundef @__func__.ossl_sm2_internal_sign)
  call void (i32, i32, ptr, ...) @ERR_set_error(i32 noundef 53, i32 noundef 786691, ptr noundef null)
  br label %41

38:                                               ; preds = %32
  %39 = load i32, ptr %13, align 4, !tbaa !14
  %40 = load ptr, ptr %9, align 8, !tbaa !33
  store i32 %39, ptr %40, align 4, !tbaa !14
  store i32 1, ptr %14, align 4, !tbaa !14
  br label %41

41:                                               ; preds = %38, %37, %31, %24, %17
  %42 = load ptr, ptr %12, align 8, !tbaa !29
  call void @ECDSA_SIG_free(ptr noundef %42)
  %43 = load ptr, ptr %11, align 8, !tbaa !24
  call void @BN_free(ptr noundef %43)
  %44 = load i32, ptr %14, align 4, !tbaa !14
  call void @llvm.lifetime.end.p0(i64 4, ptr %14) #4
  call void @llvm.lifetime.end.p0(i64 4, ptr %13) #4
  call void @llvm.lifetime.end.p0(i64 8, ptr %12) #4
  call void @llvm.lifetime.end.p0(i64 8, ptr %11) #4
  ret i32 %44
}