; Function Attrs: nounwind uwtable
define range(i32 -1, 2) i32 @ossl_sm2_internal_sign(ptr noundef %0, i32 noundef %1, ptr noundef %2, ptr noundef writeonly captures(none) %3, ptr noundef %4) local_unnamed_addr #0 {
  %6 = alloca ptr, align 8
  store ptr %2, ptr %6, align 8, !tbaa !9
  %7 = icmp eq ptr %2, null
  br i1 %7, label %8, label %9

8:                                                ; preds = %5
  tail call void @ERR_new() #4
  tail call void @ERR_set_debug(ptr noundef nonnull @.str, i32 noundef 465, ptr noundef nonnull @__func__.ossl_sm2_internal_sign) #4
  tail call void (i32, i32, ptr, ...) @ERR_set_error(i32 noundef 53, i32 noundef 786690, ptr noundef null) #4
  br label %22

9:                                                ; preds = %5
  %10 = tail call ptr @BN_bin2bn(ptr noundef %0, i32 noundef %1, ptr noundef null) #4
  %11 = icmp eq ptr %10, null
  br i1 %11, label %12, label %13

12:                                               ; preds = %9
  tail call void @ERR_new() #4
  tail call void @ERR_set_debug(ptr noundef nonnull @.str, i32 noundef 471, ptr noundef nonnull @__func__.ossl_sm2_internal_sign) #4
  tail call void (i32, i32, ptr, ...) @ERR_set_error(i32 noundef 53, i32 noundef 524291, ptr noundef null) #4
  br label %22

13:                                               ; preds = %9
  %14 = tail call fastcc ptr @sm2_sig_gen(ptr noundef %4, ptr noundef %10)
  %15 = icmp eq ptr %14, null
  br i1 %15, label %16, label %17

16:                                               ; preds = %13
  tail call void @ERR_new() #4
  tail call void @ERR_set_debug(ptr noundef nonnull @.str, i32 noundef 477, ptr noundef nonnull @__func__.ossl_sm2_internal_sign) #4
  tail call void (i32, i32, ptr, ...) @ERR_set_error(i32 noundef 53, i32 noundef 786691, ptr noundef null) #4
  br label %22

17:                                               ; preds = %13
  %18 = call i32 @i2d_ECDSA_SIG(ptr noundef nonnull %14, ptr noundef nonnull %6) #4
  %19 = icmp slt i32 %18, 0
  br i1 %19, label %20, label %21

20:                                               ; preds = %17
  call void @ERR_new() #4
  call void @ERR_set_debug(ptr noundef nonnull @.str, i32 noundef 483, ptr noundef nonnull @__func__.ossl_sm2_internal_sign) #4
  call void (i32, i32, ptr, ...) @ERR_set_error(i32 noundef 53, i32 noundef 786691, ptr noundef null) #4
  br label %22

21:                                               ; preds = %17
  store i32 %18, ptr %3, align 4, !tbaa !11
  br label %22

22:                                               ; preds = %21, %20, %16, %12, %8
  %.013 = phi ptr [ null, %8 ], [ null, %12 ], [ null, %16 ], [ %14, %20 ], [ %14, %21 ]
  %.012 = phi ptr [ null, %8 ], [ null, %12 ], [ %10, %16 ], [ %10, %20 ], [ %10, %21 ]
  %.0 = phi i32 [ -1, %8 ], [ -1, %12 ], [ -1, %16 ], [ -1, %20 ], [ 1, %21 ]
  call void @ECDSA_SIG_free(ptr noundef %.013) #4
  call void @BN_free(ptr noundef %.012) #4
  ret i32 %.0
}